; ModuleID = '31/1265.c'
source_filename = "31/1265.c"
target datalayout = "e-m:e-p270:32:32-p271:32:32-p272:64:64-i64:64-f80:128-n8:16:32:64-S128"
target triple = "x86_64-pc-linux-gnu"

%struct.stu = type { [20 x i8], [20 x i8], i8, i32, [20 x i8], [20 x i8], %struct.stu*, %struct.stu* }

@.str = private unnamed_addr constant [3 x i8] c"%s\00", align 1
@.str.1 = private unnamed_addr constant [4 x i8] c"end\00", align 1
@.str.2 = private unnamed_addr constant [15 x i8] c"%s %c %d %s %s\00", align 1
@.str.3 = private unnamed_addr constant [19 x i8] c"%s %s %c %d %s %s\0A\00", align 1

; Function Attrs: noinline nounwind uwtable
define dso_local %struct.stu* @cr() #0 {
  %1 = alloca %struct.stu*, align 8
  %2 = alloca %struct.stu*, align 8
  %3 = alloca %struct.stu*, align 8
  %4 = alloca %struct.stu*, align 8
  %5 = alloca %struct.stu*, align 8
  %6 = alloca i32, align 4
  store i32 0, i32* %6, align 4
  %7 = call noalias i8* @malloc(i64 100) #4
  %8 = bitcast i8* %7 to %struct.stu*
  store %struct.stu* %8, %struct.stu** %5, align 8
  store %struct.stu* %8, %struct.stu** %4, align 8
  %9 = load %struct.stu*, %struct.stu** %4, align 8
  %10 = getelementptr inbounds %struct.stu, %struct.stu* %9, i32 0, i32 0
  %11 = call i32 (i8*, ...) @__isoc99_scanf(i8* getelementptr inbounds ([3 x i8], [3 x i8]* @.str, i64 0, i64 0), [20 x i8]* %10)
  %12 = load %struct.stu*, %struct.stu** %4, align 8
  %13 = getelementptr inbounds %struct.stu, %struct.stu* %12, i32 0, i32 0
  %14 = getelementptr inbounds [20 x i8], [20 x i8]* %13, i64 0, i64 0
  %15 = call i32 @strcmp(i8* %14, i8* getelementptr inbounds ([4 x i8], [4 x i8]* @.str.1, i64 0, i64 0)) #5
  %16 = icmp ne i32 %15, 0
  br i1 %16, label %17, label %75

17:                                               ; preds = %0
  %18 = load %struct.stu*, %struct.stu** %4, align 8
  %19 = getelementptr inbounds %struct.stu, %struct.stu* %18, i32 0, i32 1
  %20 = load %struct.stu*, %struct.stu** %4, align 8
  %21 = getelementptr inbounds %struct.stu, %struct.stu* %20, i32 0, i32 2
  %22 = load %struct.stu*, %struct.stu** %4, align 8
  %23 = getelementptr inbounds %struct.stu, %struct.stu* %22, i32 0, i32 3
  %24 = load %struct.stu*, %struct.stu** %4, align 8
  %25 = getelementptr inbounds %struct.stu, %struct.stu* %24, i32 0, i32 4
  %26 = load %struct.stu*, %struct.stu** %4, align 8
  %27 = getelementptr inbounds %struct.stu, %struct.stu* %26, i32 0, i32 5
  %28 = call i32 (i8*, ...) @__isoc99_scanf(i8* getelementptr inbounds ([15 x i8], [15 x i8]* @.str.2, i64 0, i64 0), [20 x i8]* %19, i8* %21, i32* %23, [20 x i8]* %25, [20 x i8]* %27)
  store %struct.stu* null, %struct.stu** %2, align 8
  br label %29

29:                                               ; preds = %17, %58
  %30 = load i32, i32* %6, align 4
  %31 = add nsw i32 %30, 1
  store i32 %31, i32* %6, align 4
  %32 = load i32, i32* %6, align 4
  %33 = icmp eq i32 %32, 1
  br i1 %33, label %34, label %38

34:                                               ; preds = %29
  %35 = load %struct.stu*, %struct.stu** %4, align 8
  store %struct.stu* %35, %struct.stu** %2, align 8
  %36 = load %struct.stu*, %struct.stu** %4, align 8
  %37 = getelementptr inbounds %struct.stu, %struct.stu* %36, i32 0, i32 7
  store %struct.stu* null, %struct.stu** %37, align 8
  br label %45

38:                                               ; preds = %29
  %39 = load %struct.stu*, %struct.stu** %4, align 8
  %40 = load %struct.stu*, %struct.stu** %5, align 8
  %41 = getelementptr inbounds %struct.stu, %struct.stu* %40, i32 0, i32 6
  store %struct.stu* %39, %struct.stu** %41, align 8
  %42 = load %struct.stu*, %struct.stu** %5, align 8
  %43 = load %struct.stu*, %struct.stu** %4, align 8
  %44 = getelementptr inbounds %struct.stu, %struct.stu* %43, i32 0, i32 7
  store %struct.stu* %42, %struct.stu** %44, align 8
  br label %45

45:                                               ; preds = %38, %34
  %46 = load %struct.stu*, %struct.stu** %4, align 8
  store %struct.stu* %46, %struct.stu** %5, align 8
  %47 = call noalias i8* @malloc(i64 100) #4
  %48 = bitcast i8* %47 to %struct.stu*
  store %struct.stu* %48, %struct.stu** %4, align 8
  %49 = load %struct.stu*, %struct.stu** %4, align 8
  %50 = getelementptr inbounds %struct.stu, %struct.stu* %49, i32 0, i32 0
  %51 = call i32 (i8*, ...) @__isoc99_scanf(i8* getelementptr inbounds ([3 x i8], [3 x i8]* @.str, i64 0, i64 0), [20 x i8]* %50)
  %52 = load %struct.stu*, %struct.stu** %4, align 8
  %53 = getelementptr inbounds %struct.stu, %struct.stu* %52, i32 0, i32 0
  %54 = getelementptr inbounds [20 x i8], [20 x i8]* %53, i64 0, i64 0
  %55 = call i32 @strcmp(i8* %54, i8* getelementptr inbounds ([4 x i8], [4 x i8]* @.str.1, i64 0, i64 0)) #5
  %56 = icmp eq i32 %55, 0
  br i1 %56, label %57, label %58

57:                                               ; preds = %45
  br label %70

58:                                               ; preds = %45
  %59 = load %struct.stu*, %struct.stu** %4, align 8
  %60 = getelementptr inbounds %struct.stu, %struct.stu* %59, i32 0, i32 1
  %61 = load %struct.stu*, %struct.stu** %4, align 8
  %62 = getelementptr inbounds %struct.stu, %struct.stu* %61, i32 0, i32 2
  %63 = load %struct.stu*, %struct.stu** %4, align 8
  %64 = getelementptr inbounds %struct.stu, %struct.stu* %63, i32 0, i32 3
  %65 = load %struct.stu*, %struct.stu** %4, align 8
  %66 = getelementptr inbounds %struct.stu, %struct.stu* %65, i32 0, i32 4
  %67 = load %struct.stu*, %struct.stu** %4, align 8
  %68 = getelementptr inbounds %struct.stu, %struct.stu* %67, i32 0, i32 5
  %69 = call i32 (i8*, ...) @__isoc99_scanf(i8* getelementptr inbounds ([15 x i8], [15 x i8]* @.str.2, i64 0, i64 0), [20 x i8]* %60, i8* %62, i32* %64, [20 x i8]* %66, [20 x i8]* %68)
  br label %29

70:                                               ; preds = %57
  %71 = load %struct.stu*, %struct.stu** %5, align 8
  %72 = getelementptr inbounds %struct.stu, %struct.stu* %71, i32 0, i32 6
  store %struct.stu* null, %struct.stu** %72, align 8
  %73 = load %struct.stu*, %struct.stu** %5, align 8
  store %struct.stu* %73, %struct.stu** %3, align 8
  %74 = load %struct.stu*, %struct.stu** %3, align 8
  store %struct.stu* %74, %struct.stu** %1, align 8
  br label %76

75:                                               ; preds = %0
  store %struct.stu* null, %struct.stu** %1, align 8
  br label %76

76:                                               ; preds = %75, %70
  %77 = load %struct.stu*, %struct.stu** %1, align 8
  ret %struct.stu* %77
}

; Function Attrs: nounwind
declare dso_local noalias i8* @malloc(i64) #1

declare dso_local i32 @__isoc99_scanf(i8*, ...) #2

; Function Attrs: nounwind readonly
declare dso_local i32 @strcmp(i8*, i8*) #3

; Function Attrs: noinline nounwind uwtable
define dso_local void @print(%struct.stu* %0) #0 {
  %2 = alloca %struct.stu*, align 8
  %3 = alloca %struct.stu*, align 8
  store %struct.stu* %0, %struct.stu** %2, align 8
  %4 = load %struct.stu*, %struct.stu** %2, align 8
  store %struct.stu* %4, %struct.stu** %3, align 8
  br label %5

5:                                                ; preds = %13, %1
  %6 = load %struct.stu*, %struct.stu** %3, align 8
  %7 = icmp ne %struct.stu* %6, null
  br i1 %7, label %8, label %11

8:                                                ; preds = %5
  %9 = load %struct.stu*, %struct.stu** %2, align 8
  %10 = icmp ne %struct.stu* %9, null
  br label %11

11:                                               ; preds = %8, %5
  %12 = phi i1 [ false, %5 ], [ %10, %8 ]
  br i1 %12, label %13, label %37

13:                                               ; preds = %11
  %14 = load %struct.stu*, %struct.stu** %3, align 8
  %15 = getelementptr inbounds %struct.stu, %struct.stu* %14, i32 0, i32 0
  %16 = getelementptr inbounds [20 x i8], [20 x i8]* %15, i64 0, i64 0
  %17 = load %struct.stu*, %struct.stu** %3, align 8
  %18 = getelementptr inbounds %struct.stu, %struct.stu* %17, i32 0, i32 1
  %19 = getelementptr inbounds [20 x i8], [20 x i8]* %18, i64 0, i64 0
  %20 = load %struct.stu*, %struct.stu** %3, align 8
  %21 = getelementptr inbounds %struct.stu, %struct.stu* %20, i32 0, i32 2
  %22 = load i8, i8* %21, align 8
  %23 = sext i8 %22 to i32
  %24 = load %struct.stu*, %struct.stu** %3, align 8
  %25 = getelementptr inbounds %struct.stu, %struct.stu* %24, i32 0, i32 3
  %26 = load i32, i32* %25, align 4
  %27 = load %struct.stu*, %struct.stu** %3, align 8
  %28 = getelementptr inbounds %struct.stu, %struct.stu* %27, i32 0, i32 4
  %29 = getelementptr inbounds [20 x i8], [20 x i8]* %28, i64 0, i64 0
  %30 = load %struct.stu*, %struct.stu** %3, align 8
  %31 = getelementptr inbounds %struct.stu, %struct.stu* %30, i32 0, i32 5
  %32 = getelementptr inbounds [20 x i8], [20 x i8]* %31, i64 0, i64 0
  %33 = call i32 (i8*, ...) @printf(i8* getelementptr inbounds ([19 x i8], [19 x i8]* @.str.3, i64 0, i64 0), i8* %16, i8* %19, i32 %23, i32 %26, i8* %29, i8* %32)
  %34 = load %struct.stu*, %struct.stu** %3, align 8
  %35 = getelementptr inbounds %struct.stu, %struct.stu* %34, i32 0, i32 7
  %36 = load %struct.stu*, %struct.stu** %35, align 8
  store %struct.stu* %36, %struct.stu** %3, align 8
  br label %5

37:                                               ; preds = %11
  ret void
}

declare dso_local i32 @printf(i8*, ...) #2

; Function Attrs: noinline nounwind uwtable
define dso_local i32 @main() #0 {
  %1 = alloca i32, align 4
  %2 = alloca %struct.stu*, align 8
  store i32 0, i32* %1, align 4
  %3 = call %struct.stu* @cr()
  store %struct.stu* %3, %struct.stu** %2, align 8
  %4 = load %struct.stu*, %struct.stu** %2, align 8
  call void @print(%struct.stu* %4)
  ret i32 0
}


!llvm.module.flags = !{!0}
!llvm.ident = !{!1}

!0 = !{i32 1, !"wchar_size", i32 4}
!1 = !{!"clang version 10.0.0-4ubuntu1 "}
